target datalayout = "e-m:e-p270:32:32-p271:32:32-p272:64:64-i64:64-i128:128-f80:128-n8:16:32:64-S128"
target triple = "x86_64-pc-linux-gnu"

%struct.UCharIterator = type { ptr, i32, i32, i32, i32, i32, ptr, ptr, ptr, ptr, ptr, ptr, ptr, ptr, ptr, ptr }

@.str = private unnamed_addr constant [17 x i8] c" 000000000000\1000\00", align 1
@.str.1 = private unnamed_addr constant [17 x i8] c"\00\00\00\00\00\00\00\00\1E\0F\0F\0F\00\00\00\00\00", align 1

; Function Attrs: mustprogress nounwind uwtable
define internal noundef i32 @_ZL16utf8IteratorNextP13UCharIterator(ptr noundef %0) #3 {
  %2 = alloca i32, align 4
  %3 = alloca ptr, align 8
  %4 = alloca i32, align 4
  %5 = alloca i16, align 2
  %6 = alloca i32, align 4
  %7 = alloca ptr, align 8
  %8 = alloca i32, align 4
  %9 = alloca i8, align 1
  store ptr %0, ptr %3, align 8, !tbaa !3
  call void @llvm.lifetime.start.p0(i64 4, ptr %4) #8
  %10 = load ptr, ptr %3, align 8, !tbaa !3
  %11 = getelementptr inbounds nuw %struct.UCharIterator, ptr %10, i32 0, i32 5
  %12 = load i32, ptr %11, align 8, !tbaa !51
  %13 = icmp ne i32 %12, 0
  br i1 %13, label %14, label %35

14:                                               ; preds = %1
  call void @llvm.lifetime.start.p0(i64 2, ptr %5) #8
  %15 = load ptr, ptr %3, align 8, !tbaa !3
  %16 = getelementptr inbounds nuw %struct.UCharIterator, ptr %15, i32 0, i32 5
  %17 = load i32, ptr %16, align 8, !tbaa !51
  %18 = and i32 %17, 1023
  %19 = or i32 %18, 56320
  %20 = trunc i32 %19 to i16
  store i16 %20, ptr %5, align 2, !tbaa !41
  %21 = load ptr, ptr %3, align 8, !tbaa !3
  %22 = getelementptr inbounds nuw %struct.UCharIterator, ptr %21, i32 0, i32 5
  store i32 0, ptr %22, align 8, !tbaa !51
  %23 = load ptr, ptr %3, align 8, !tbaa !3
  %24 = getelementptr inbounds nuw %struct.UCharIterator, ptr %23, i32 0, i32 3
  %25 = load i32, ptr %24, align 8, !tbaa !40
  store i32 %25, ptr %4, align 4, !tbaa !10
  %26 = icmp sge i32 %25, 0
  br i1 %26, label %27, label %32

27:                                               ; preds = %14
  %28 = load i32, ptr %4, align 4, !tbaa !10
  %29 = add nsw i32 %28, 1
  %30 = load ptr, ptr %3, align 8, !tbaa !3
  %31 = getelementptr inbounds nuw %struct.UCharIterator, ptr %30, i32 0, i32 3
  store i32 %29, ptr %31, align 8, !tbaa !40
  br label %32

32:                                               ; preds = %27, %14
  %33 = load i16, ptr %5, align 2, !tbaa !41
  %34 = zext i16 %33 to i32
  store i32 %34, ptr %2, align 4
  store i32 1, ptr %6, align 4
  call void @llvm.lifetime.end.p0(i64 2, ptr %5) #8
  br label %277

35:                                               ; preds = %1
  %36 = load ptr, ptr %3, align 8, !tbaa !3
  %37 = getelementptr inbounds nuw %struct.UCharIterator, ptr %36, i32 0, i32 2
  %38 = load i32, ptr %37, align 4, !tbaa !39
  %39 = load ptr, ptr %3, align 8, !tbaa !3
  %40 = getelementptr inbounds nuw %struct.UCharIterator, ptr %39, i32 0, i32 4
  %41 = load i32, ptr %40, align 4, !tbaa !17
  %42 = icmp slt i32 %38, %41
  br i1 %42, label %43, label %276

43:                                               ; preds = %35
  call void @llvm.lifetime.start.p0(i64 8, ptr %7) #8
  %44 = load ptr, ptr %3, align 8, !tbaa !3
  %45 = getelementptr inbounds nuw %struct.UCharIterator, ptr %44, i32 0, i32 0
  %46 = load ptr, ptr %45, align 8, !tbaa !14
  store ptr %46, ptr %7, align 8, !tbaa !18
  call void @llvm.lifetime.start.p0(i64 4, ptr %8) #8
  br label %47

47:                                               ; preds = %43
  %48 = load ptr, ptr %7, align 8, !tbaa !18
  %49 = load ptr, ptr %3, align 8, !tbaa !3
  %50 = getelementptr inbounds nuw %struct.UCharIterator, ptr %49, i32 0, i32 2
  %51 = load i32, ptr %50, align 4, !tbaa !39
  %52 = add nsw i32 %51, 1
  store i32 %52, ptr %50, align 4, !tbaa !39
  %53 = sext i32 %51 to i64
  %54 = getelementptr inbounds i8, ptr %48, i64 %53
  %55 = load i8, ptr %54, align 1, !tbaa !20
  %56 = zext i8 %55 to i32
  store i32 %56, ptr %8, align 4, !tbaa !10
  %57 = load i32, ptr %8, align 4, !tbaa !10
  %58 = and i32 %57, 128
  %59 = icmp eq i32 %58, 0
  br i1 %59, label %194, label %60

60:                                               ; preds = %47
  call void @llvm.lifetime.start.p0(i64 1, ptr %9) #8
  store i8 0, ptr %9, align 1, !tbaa !20
  %61 = load ptr, ptr %3, align 8, !tbaa !3
  %62 = getelementptr inbounds nuw %struct.UCharIterator, ptr %61, i32 0, i32 2
  %63 = load i32, ptr %62, align 4, !tbaa !39
  %64 = load ptr, ptr %3, align 8, !tbaa !3
  %65 = getelementptr inbounds nuw %struct.UCharIterator, ptr %64, i32 0, i32 4
  %66 = load i32, ptr %65, align 4, !tbaa !17
  %67 = icmp ne i32 %63, %66
  br i1 %67, label %68, label %192

68:                                               ; preds = %60
  %69 = load i32, ptr %8, align 4, !tbaa !10
  %70 = icmp sge i32 %69, 224
  br i1 %70, label %71, label %162

71:                                               ; preds = %68
  %72 = load i32, ptr %8, align 4, !tbaa !10
  %73 = icmp slt i32 %72, 240
  br i1 %73, label %74, label %98

74:                                               ; preds = %71
  %75 = load i32, ptr %8, align 4, !tbaa !10
  %76 = and i32 %75, 15
  store i32 %76, ptr %8, align 4, !tbaa !10
  %77 = sext i32 %76 to i64
  %78 = getelementptr inbounds [17 x i8], ptr @.str, i64 0, i64 %77
  %79 = load i8, ptr %78, align 1, !tbaa !20
  %80 = sext i8 %79 to i32
  %81 = load ptr, ptr %7, align 8, !tbaa !18
  %82 = load ptr, ptr %3, align 8, !tbaa !3
  %83 = getelementptr inbounds nuw %struct.UCharIterator, ptr %82, i32 0, i32 2
  %84 = load i32, ptr %83, align 4, !tbaa !39
  %85 = sext i32 %84 to i64
  %86 = getelementptr inbounds i8, ptr %81, i64 %85
  %87 = load i8, ptr %86, align 1, !tbaa !20
  store i8 %87, ptr %9, align 1, !tbaa !20
  %88 = zext i8 %87 to i32
  %89 = ashr i32 %88, 5
  %90 = shl i32 1, %89
  %91 = and i32 %80, %90
  %92 = icmp ne i32 %91, 0
  br i1 %92, label %93, label %192

93:                                               ; preds = %74
  %94 = load i8, ptr %9, align 1, !tbaa !20
  %95 = zext i8 %94 to i32
  %96 = and i32 %95, 63
  %97 = trunc i32 %96 to i8
  store i8 %97, ptr %9, align 1, !tbaa !20
  br i1 true, label %148, label %192

98:                                               ; preds = %71
  %99 = load i32, ptr %8, align 4, !tbaa !10
  %100 = sub nsw i32 %99, 240
  store i32 %100, ptr %8, align 4, !tbaa !10
  %101 = icmp sle i32 %100, 4
  br i1 %101, label %102, label %192

102:                                              ; preds = %98
  %103 = load ptr, ptr %7, align 8, !tbaa !18
  %104 = load ptr, ptr %3, align 8, !tbaa !3
  %105 = getelementptr inbounds nuw %struct.UCharIterator, ptr %104, i32 0, i32 2
  %106 = load i32, ptr %105, align 4, !tbaa !39
  %107 = sext i32 %106 to i64
  %108 = getelementptr inbounds i8, ptr %103, i64 %107
  %109 = load i8, ptr %108, align 1, !tbaa !20
  store i8 %109, ptr %9, align 1, !tbaa !20
  %110 = zext i8 %109 to i32
  %111 = ashr i32 %110, 4
  %112 = sext i32 %111 to i64
  %113 = getelementptr inbounds [17 x i8], ptr @.str.1, i64 0, i64 %112
  %114 = load i8, ptr %113, align 1, !tbaa !20
  %115 = sext i8 %114 to i32
  %116 = load i32, ptr %8, align 4, !tbaa !10
  %117 = shl i32 1, %116
  %118 = and i32 %115, %117
  %119 = icmp ne i32 %118, 0
  br i1 %119, label %120, label %192

120:                                              ; preds = %102
  %121 = load i32, ptr %8, align 4, !tbaa !10
  %122 = shl i32 %121, 6
  %123 = load i8, ptr %9, align 1, !tbaa !20
  %124 = zext i8 %123 to i32
  %125 = and i32 %124, 63
  %126 = or i32 %122, %125
  store i32 %126, ptr %8, align 4, !tbaa !10
  %127 = load ptr, ptr %3, align 8, !tbaa !3
  %128 = getelementptr inbounds nuw %struct.UCharIterator, ptr %127, i32 0, i32 2
  %129 = load i32, ptr %128, align 4, !tbaa !39
  %130 = add nsw i32 %129, 1
  store i32 %130, ptr %128, align 4, !tbaa !39
  %131 = load ptr, ptr %3, align 8, !tbaa !3
  %132 = getelementptr inbounds nuw %struct.UCharIterator, ptr %131, i32 0, i32 4
  %133 = load i32, ptr %132, align 4, !tbaa !17
  %134 = icmp ne i32 %130, %133
  br i1 %134, label %135, label %192

135:                                              ; preds = %120
  %136 = load ptr, ptr %7, align 8, !tbaa !18
  %137 = load ptr, ptr %3, align 8, !tbaa !3
  %138 = getelementptr inbounds nuw %struct.UCharIterator, ptr %137, i32 0, i32 2
  %139 = load i32, ptr %138, align 4, !tbaa !39
  %140 = sext i32 %139 to i64
  %141 = getelementptr inbounds i8, ptr %136, i64 %140
  %142 = load i8, ptr %141, align 1, !tbaa !20
  %143 = zext i8 %142 to i32
  %144 = sub nsw i32 %143, 128
  %145 = trunc i32 %144 to i8
  store i8 %145, ptr %9, align 1, !tbaa !20
  %146 = zext i8 %145 to i32
  %147 = icmp sle i32 %146, 63
  br i1 %147, label %148, label %192

148:                                              ; preds = %135, %93
  %149 = load i32, ptr %8, align 4, !tbaa !10
  %150 = shl i32 %149, 6
  %151 = load i8, ptr %9, align 1, !tbaa !20
  %152 = zext i8 %151 to i32
  %153 = or i32 %150, %152
  store i32 %153, ptr %8, align 4, !tbaa !10
  %154 = load ptr, ptr %3, align 8, !tbaa !3
  %155 = getelementptr inbounds nuw %struct.UCharIterator, ptr %154, i32 0, i32 2
  %156 = load i32, ptr %155, align 4, !tbaa !39
  %157 = add nsw i32 %156, 1
  store i32 %157, ptr %155, align 4, !tbaa !39
  %158 = load ptr, ptr %3, align 8, !tbaa !3
  %159 = getelementptr inbounds nuw %struct.UCharIterator, ptr %158, i32 0, i32 4
  %160 = load i32, ptr %159, align 4, !tbaa !17
  %161 = icmp ne i32 %157, %160
  br i1 %161, label %168, label %192

162:                                              ; preds = %68
  %163 = load i32, ptr %8, align 4, !tbaa !10
  %164 = icmp sge i32 %163, 194
  br i1 %164, label %165, label %192

165:                                              ; preds = %162
  %166 = load i32, ptr %8, align 4, !tbaa !10
  %167 = and i32 %166, 31
  store i32 %167, ptr %8, align 4, !tbaa !10
  br i1 true, label %168, label %192

168:                                              ; preds = %165, %148
  %169 = load ptr, ptr %7, align 8, !tbaa !18
  %170 = load ptr, ptr %3, align 8, !tbaa !3
  %171 = getelementptr inbounds nuw %struct.UCharIterator, ptr %170, i32 0, i32 2
  %172 = load i32, ptr %171, align 4, !tbaa !39
  %173 = sext i32 %172 to i64
  %174 = getelementptr inbounds i8, ptr %169, i64 %173
  %175 = load i8, ptr %174, align 1, !tbaa !20
  %176 = zext i8 %175 to i32
  %177 = sub nsw i32 %176, 128
  %178 = trunc i32 %177 to i8
  store i8 %178, ptr %9, align 1, !tbaa !20
  %179 = zext i8 %178 to i32
  %180 = icmp sle i32 %179, 63
  br i1 %180, label %181, label %192

181:                                              ; preds = %168
  %182 = load i32, ptr %8, align 4, !tbaa !10
  %183 = shl i32 %182, 6
  %184 = load i8, ptr %9, align 1, !tbaa !20
  %185 = zext i8 %184 to i32
  %186 = or i32 %183, %185
  store i32 %186, ptr %8, align 4, !tbaa !10
  %187 = load ptr, ptr %3, align 8, !tbaa !3
  %188 = getelementptr inbounds nuw %struct.UCharIterator, ptr %187, i32 0, i32 2
  %189 = load i32, ptr %188, align 4, !tbaa !39
  %190 = add nsw i32 %189, 1
  store i32 %190, ptr %188, align 4, !tbaa !39
  br i1 true, label %191, label %192

191:                                              ; preds = %181
  br label %193

192:                                              ; preds = %181, %168, %165, %162, %148, %135, %120, %102, %98, %93, %74, %60
  store i32 65533, ptr %8, align 4, !tbaa !10
  br label %193

193:                                              ; preds = %192, %191
  call void @llvm.lifetime.end.p0(i64 1, ptr %9) #8
  br label %194

194:                                              ; preds = %193, %47
  br label %195

195:                                              ; preds = %194
  br label %196

196:                                              ; preds = %195
  %197 = load ptr, ptr %3, align 8, !tbaa !3
  %198 = getelementptr inbounds nuw %struct.UCharIterator, ptr %197, i32 0, i32 3
  %199 = load i32, ptr %198, align 8, !tbaa !40
  store i32 %199, ptr %4, align 4, !tbaa !10
  %200 = icmp sge i32 %199, 0
  br i1 %200, label %201, label %231

201:                                              ; preds = %196
  %202 = load i32, ptr %4, align 4, !tbaa !10
  %203 = add nsw i32 %202, 1
  store i32 %203, ptr %4, align 4, !tbaa !10
  %204 = load ptr, ptr %3, align 8, !tbaa !3
  %205 = getelementptr inbounds nuw %struct.UCharIterator, ptr %204, i32 0, i32 3
  store i32 %203, ptr %205, align 8, !tbaa !40
  %206 = load ptr, ptr %3, align 8, !tbaa !3
  %207 = getelementptr inbounds nuw %struct.UCharIterator, ptr %206, i32 0, i32 1
  %208 = load i32, ptr %207, align 8, !tbaa !16
  %209 = icmp slt i32 %208, 0
  br i1 %209, label %210, label %230

210:                                              ; preds = %201
  %211 = load ptr, ptr %3, align 8, !tbaa !3
  %212 = getelementptr inbounds nuw %struct.UCharIterator, ptr %211, i32 0, i32 2
  %213 = load i32, ptr %212, align 4, !tbaa !39
  %214 = load ptr, ptr %3, align 8, !tbaa !3
  %215 = getelementptr inbounds nuw %struct.UCharIterator, ptr %214, i32 0, i32 4
  %216 = load i32, ptr %215, align 4, !tbaa !17
  %217 = icmp eq i32 %213, %216
  br i1 %217, label %218, label %230

218:                                              ; preds = %210
  %219 = load i32, ptr %8, align 4, !tbaa !10
  %220 = icmp sle i32 %219, 65535
  br i1 %220, label %221, label %223

221:                                              ; preds = %218
  %222 = load i32, ptr %4, align 4, !tbaa !10
  br label %226

223:                                              ; preds = %218
  %224 = load i32, ptr %4, align 4, !tbaa !10
  %225 = add nsw i32 %224, 1
  br label %226

226:                                              ; preds = %223, %221
  %227 = phi i32 [ %222, %221 ], [ %225, %223 ]
  %228 = load ptr, ptr %3, align 8, !tbaa !3
  %229 = getelementptr inbounds nuw %struct.UCharIterator, ptr %228, i32 0, i32 1
  store i32 %227, ptr %229, align 8, !tbaa !16
  br label %230

230:                                              ; preds = %226, %210, %201
  br label %261

231:                                              ; preds = %196
  %232 = load ptr, ptr %3, align 8, !tbaa !3
  %233 = getelementptr inbounds nuw %struct.UCharIterator, ptr %232, i32 0, i32 2
  %234 = load i32, ptr %233, align 4, !tbaa !39
  %235 = load ptr, ptr %3, align 8, !tbaa !3
  %236 = getelementptr inbounds nuw %struct.UCharIterator, ptr %235, i32 0, i32 4
  %237 = load i32, ptr %236, align 4, !tbaa !17
  %238 = icmp eq i32 %234, %237
  br i1 %238, label %239, label %260

239:                                              ; preds = %231
  %240 = load ptr, ptr %3, align 8, !tbaa !3
  %241 = getelementptr inbounds nuw %struct.UCharIterator, ptr %240, i32 0, i32 1
  %242 = load i32, ptr %241, align 8, !tbaa !16
  %243 = icmp sge i32 %242, 0
  br i1 %243, label %244, label %260

244:                                              ; preds = %239
  %245 = load i32, ptr %8, align 4, !tbaa !10
  %246 = icmp sle i32 %245, 65535
  br i1 %246, label %247, label %251

247:                                              ; preds = %244
  %248 = load ptr, ptr %3, align 8, !tbaa !3
  %249 = getelementptr inbounds nuw %struct.UCharIterator, ptr %248, i32 0, i32 1
  %250 = load i32, ptr %249, align 8, !tbaa !16
  br label %256

251:                                              ; preds = %244
  %252 = load ptr, ptr %3, align 8, !tbaa !3
  %253 = getelementptr inbounds nuw %struct.UCharIterator, ptr %252, i32 0, i32 1
  %254 = load i32, ptr %253, align 8, !tbaa !16
  %255 = sub nsw i32 %254, 1
  br label %256

256:                                              ; preds = %251, %247
  %257 = phi i32 [ %250, %247 ], [ %255, %251 ]
  %258 = load ptr, ptr %3, align 8, !tbaa !3
  %259 = getelementptr inbounds nuw %struct.UCharIterator, ptr %258, i32 0, i32 3
  store i32 %257, ptr %259, align 8, !tbaa !40
  br label %260

260:                                              ; preds = %256, %239, %231
  br label %261

261:                                              ; preds = %260, %230
  %262 = load i32, ptr %8, align 4, !tbaa !10
  %263 = icmp sle i32 %262, 65535
  br i1 %263, label %264, label %266

264:                                              ; preds = %261
  %265 = load i32, ptr %8, align 4, !tbaa !10
  store i32 %265, ptr %2, align 4
  store i32 1, ptr %6, align 4
  br label %275

266:                                              ; preds = %261
  %267 = load i32, ptr %8, align 4, !tbaa !10
  %268 = load ptr, ptr %3, align 8, !tbaa !3
  %269 = getelementptr inbounds nuw %struct.UCharIterator, ptr %268, i32 0, i32 5
  store i32 %267, ptr %269, align 8, !tbaa !51
  %270 = load i32, ptr %8, align 4, !tbaa !10
  %271 = ashr i32 %270, 10
  %272 = add nsw i32 %271, 55232
  %273 = trunc i32 %272 to i16
  %274 = zext i16 %273 to i32
  store i32 %274, ptr %2, align 4
  store i32 1, ptr %6, align 4
  br label %275

275:                                              ; preds = %266, %264
  call void @llvm.lifetime.end.p0(i64 4, ptr %8) #8
  call void @llvm.lifetime.end.p0(i64 8, ptr %7) #8
  br label %277

276:                                              ; preds = %35
  store i32 -1, ptr %2, align 4
  store i32 1, ptr %6, align 4
  br label %277

277:                                              ; preds = %276, %275, %32
  call void @llvm.lifetime.end.p0(i64 4, ptr %4) #8
  %278 = load i32, ptr %2, align 4
  ret i32 %278
}