; Function Attrs: mustprogress nofree norecurse nosync nounwind willreturn memory(read, argmem: readwrite, inaccessiblemem: none) uwtable
define internal noundef range(i32 -1, 65536) i32 @_ZL16utf8IteratorNextP13UCharIterator(ptr noundef captures(none) %0) #9 {
  %2 = getelementptr inbounds nuw i8, ptr %0, i64 24
  %3 = load i32, ptr %2, align 8, !tbaa !39
  %.not = icmp eq i32 %3, 0
  br i1 %.not, label %12, label %4

4:                                                ; preds = %1
  %5 = and i32 %3, 1023
  %6 = or disjoint i32 %5, 56320
  store i32 0, ptr %2, align 8, !tbaa !39
  %7 = getelementptr inbounds nuw i8, ptr %0, i64 16
  %8 = load i32, ptr %7, align 8, !tbaa !28
  %9 = icmp sgt i32 %8, -1
  br i1 %9, label %10, label %125

10:                                               ; preds = %4
  %11 = add nuw nsw i32 %8, 1
  store i32 %11, ptr %7, align 8, !tbaa !28
  br label %125

12:                                               ; preds = %1
  %13 = getelementptr inbounds nuw i8, ptr %0, i64 12
  %14 = load i32, ptr %13, align 4, !tbaa !27
  %15 = getelementptr inbounds nuw i8, ptr %0, i64 20
  %16 = load i32, ptr %15, align 4, !tbaa !13
  %17 = icmp slt i32 %14, %16
  br i1 %17, label %18, label %125

18:                                               ; preds = %12
  %19 = load ptr, ptr %0, align 8, !tbaa !10
  %20 = add nsw i32 %14, 1
  store i32 %20, ptr %13, align 4, !tbaa !27
  %21 = sext i32 %14 to i64
  %22 = getelementptr inbounds i8, ptr %19, i64 %21
  %23 = load i8, ptr %22, align 1, !tbaa !14
  %24 = zext i8 %23 to i32
  %25 = icmp sgt i8 %23, -1
  br i1 %25, label %94, label %26

26:                                               ; preds = %18
  %.not78 = icmp eq i32 %20, %16
  br i1 %.not78, label %94, label %27

27:                                               ; preds = %26
  %28 = icmp samesign ugt i8 %23, -33
  br i1 %28, label %29, label %78

29:                                               ; preds = %27
  %30 = icmp samesign ult i8 %23, -16
  br i1 %30, label %31, label %46

31:                                               ; preds = %29
  %32 = and i32 %24, 15
  %33 = zext nneg i32 %32 to i64
  %34 = getelementptr inbounds nuw [17 x i8], ptr @.str, i64 0, i64 %33
  %35 = load i8, ptr %34, align 1, !tbaa !14
  %36 = zext i8 %35 to i32
  %37 = sext i32 %20 to i64
  %38 = getelementptr inbounds i8, ptr %19, i64 %37
  %39 = load i8, ptr %38, align 1, !tbaa !14
  %40 = lshr i8 %39, 5
  %41 = zext nneg i8 %40 to i32
  %42 = shl nuw nsw i32 1, %41
  %43 = and i32 %42, %36
  %.not81 = icmp eq i32 %43, 0
  br i1 %.not81, label %94, label %44

44:                                               ; preds = %31
  %45 = and i8 %39, 63
  br label %72

46:                                               ; preds = %29
  %47 = add nsw i32 %24, -240
  %48 = icmp samesign ult i8 %23, -11
  br i1 %48, label %49, label %94

49:                                               ; preds = %46
  %50 = sext i32 %20 to i64
  %51 = getelementptr inbounds i8, ptr %19, i64 %50
  %52 = load i8, ptr %51, align 1, !tbaa !14
  %53 = zext i8 %52 to i32
  %54 = lshr i32 %53, 4
  %55 = zext nneg i32 %54 to i64
  %56 = getelementptr inbounds nuw [17 x i8], ptr @.str.1, i64 0, i64 %55
  %57 = load i8, ptr %56, align 1, !tbaa !14
  %58 = sext i8 %57 to i32
  %59 = shl nuw nsw i32 1, %47
  %60 = and i32 %59, %58
  %.not79 = icmp eq i32 %60, 0
  br i1 %.not79, label %94, label %61

61:                                               ; preds = %49
  %62 = add nsw i32 %14, 2
  store i32 %62, ptr %13, align 4, !tbaa !27
  %.not80 = icmp eq i32 %62, %16
  br i1 %.not80, label %94, label %63

63:                                               ; preds = %61
  %64 = shl nuw nsw i32 %47, 6
  %65 = and i32 %53, 63
  %66 = or disjoint i32 %65, %64
  %67 = sext i32 %62 to i64
  %68 = getelementptr inbounds i8, ptr %19, i64 %67
  %69 = load i8, ptr %68, align 1, !tbaa !14
  %70 = xor i8 %69, -128
  %71 = icmp ult i8 %70, 64
  br i1 %71, label %72, label %94

72:                                               ; preds = %44, %63
  %73 = phi i32 [ %20, %44 ], [ %62, %63 ]
  %.064 = phi i32 [ %32, %44 ], [ %66, %63 ]
  %.0 = phi i8 [ %45, %44 ], [ %70, %63 ]
  %74 = shl nuw nsw i32 %.064, 6
  %75 = zext nneg i8 %.0 to i32
  %76 = or disjoint i32 %74, %75
  %77 = add nsw i32 %73, 1
  store i32 %77, ptr %13, align 4, !tbaa !27
  %.not82 = icmp eq i32 %77, %16
  br i1 %.not82, label %94, label %82

78:                                               ; preds = %27
  %79 = icmp samesign ugt i8 %23, -63
  br i1 %79, label %80, label %94

80:                                               ; preds = %78
  %81 = and i32 %24, 31
  br label %82

82:                                               ; preds = %80, %72
  %83 = phi i32 [ %77, %72 ], [ %20, %80 ]
  %.1 = phi i32 [ %76, %72 ], [ %81, %80 ]
  %84 = sext i32 %83 to i64
  %85 = getelementptr inbounds i8, ptr %19, i64 %84
  %86 = load i8, ptr %85, align 1, !tbaa !14
  %87 = xor i8 %86, -128
  %88 = icmp ult i8 %87, 64
  br i1 %88, label %89, label %94

89:                                               ; preds = %82
  %90 = zext nneg i8 %87 to i32
  %91 = shl nuw nsw i32 %.1, 6
  %92 = or disjoint i32 %91, %90
  %93 = add nsw i32 %83, 1
  store i32 %93, ptr %13, align 4, !tbaa !27
  br label %94

94:                                               ; preds = %89, %82, %78, %72, %63, %61, %49, %46, %31, %26, %18
  %95 = phi i32 [ %20, %18 ], [ %93, %89 ], [ %83, %82 ], [ %20, %78 ], [ %16, %72 ], [ %62, %63 ], [ %16, %61 ], [ %20, %49 ], [ %20, %46 ], [ %20, %31 ], [ %16, %26 ]
  %.3 = phi i32 [ %24, %18 ], [ %92, %89 ], [ 65533, %82 ], [ 65533, %78 ], [ 65533, %72 ], [ 65533, %63 ], [ 65533, %61 ], [ 65533, %49 ], [ 65533, %46 ], [ 65533, %31 ], [ 65533, %26 ]
  %96 = getelementptr inbounds nuw i8, ptr %0, i64 16
  %97 = load i32, ptr %96, align 8, !tbaa !28
  %98 = icmp sgt i32 %97, -1
  br i1 %98, label %99, label %109

99:                                               ; preds = %94
  %100 = add nuw nsw i32 %97, 1
  store i32 %100, ptr %96, align 8, !tbaa !28
  %101 = getelementptr inbounds nuw i8, ptr %0, i64 8
  %102 = load i32, ptr %101, align 8, !tbaa !12
  %103 = icmp slt i32 %102, 0
  %104 = icmp eq i32 %95, %16
  %or.cond = select i1 %103, i1 %104, i1 false
  br i1 %or.cond, label %105, label %119

105:                                              ; preds = %99
  %106 = icmp slt i32 %.3, 65536
  %107 = add nuw nsw i32 %97, 2
  %108 = select i1 %106, i32 %100, i32 %107
  store i32 %108, ptr %101, align 8, !tbaa !12
  br label %119

109:                                              ; preds = %94
  %110 = icmp eq i32 %95, %16
  br i1 %110, label %111, label %119

111:                                              ; preds = %109
  %112 = getelementptr inbounds nuw i8, ptr %0, i64 8
  %113 = load i32, ptr %112, align 8, !tbaa !12
  %114 = icmp sgt i32 %113, -1
  br i1 %114, label %115, label %119

115:                                              ; preds = %111
  %116 = icmp sgt i32 %.3, 65535
  %117 = sext i1 %116 to i32
  %118 = add nsw i32 %113, %117
  store i32 %118, ptr %96, align 8, !tbaa !28
  br label %119

119:                                              ; preds = %109, %111, %115, %99, %105
  %120 = icmp slt i32 %.3, 65536
  br i1 %120, label %125, label %121

121:                                              ; preds = %119
  store i32 %.3, ptr %2, align 8, !tbaa !39
  %122 = lshr i32 %.3, 10
  %123 = add nuw nsw i32 %122, 55232
  %124 = and i32 %123, 65535
  br label %125

125:                                              ; preds = %12, %121, %119, %4, %10
  %.065 = phi i32 [ %6, %10 ], [ %6, %4 ], [ %124, %121 ], [ %.3, %119 ], [ -1, %12 ]
  ret i32 %.065
}